target datalayout = "e-m:e-p270:32:32-p271:32:32-p272:64:64-i64:64-i128:128-f80:128-n8:16:32:64-S128"
target triple = "x86_64-pc-linux-gnu"

%struct.AVFilterContext = type { ptr, ptr, ptr, ptr, ptr, i32, ptr, ptr, i32, ptr, ptr, i32, i32, ptr, ptr, ptr, ptr, i32, ptr, i32, i32 }
%struct.ReadEIA608Context = type { ptr, i32, i32, float, i32, i32, i32, i32, i32, ptr, [2 x ptr] }

; Function Attrs: nounwind uwtable
define internal i32 @process_command(ptr noundef %0, ptr noundef %1, ptr noundef %2, ptr noundef %3, i32 noundef %4, i32 noundef %5) #1 {
  %7 = alloca i32, align 4
  %8 = alloca ptr, align 8
  %9 = alloca ptr, align 8
  %10 = alloca ptr, align 8
  %11 = alloca ptr, align 8
  %12 = alloca i32, align 4
  %13 = alloca i32, align 4
  %14 = alloca ptr, align 8
  %15 = alloca i32, align 4
  %16 = alloca i32, align 4
  %17 = alloca i32, align 4
  %18 = alloca i32, align 4
  store ptr %0, ptr %8, align 8, !tbaa !4
  store ptr %1, ptr %9, align 8, !tbaa !33
  store ptr %2, ptr %10, align 8, !tbaa !33
  store ptr %3, ptr %11, align 8, !tbaa !33
  store i32 %4, ptr %12, align 4, !tbaa !24
  store i32 %5, ptr %13, align 4, !tbaa !24
  call void @llvm.lifetime.start.p0(i64 8, ptr %14) #8
  %19 = load ptr, ptr %8, align 8, !tbaa !4
  %20 = getelementptr inbounds nuw %struct.AVFilterContext, ptr %19, i32 0, i32 9
  %21 = load ptr, ptr %20, align 8, !tbaa !9
  store ptr %21, ptr %14, align 8, !tbaa !22
  call void @llvm.lifetime.start.p0(i64 4, ptr %15) #8
  call void @llvm.lifetime.start.p0(i64 4, ptr %16) #8
  %22 = load ptr, ptr %14, align 8, !tbaa !22
  %23 = getelementptr inbounds nuw %struct.ReadEIA608Context, ptr %22, i32 0, i32 1
  %24 = load i32, ptr %23, align 8, !tbaa !34
  store i32 %24, ptr %16, align 4, !tbaa !24
  call void @llvm.lifetime.start.p0(i64 4, ptr %17) #8
  %25 = load ptr, ptr %14, align 8, !tbaa !22
  %26 = getelementptr inbounds nuw %struct.ReadEIA608Context, ptr %25, i32 0, i32 2
  %27 = load i32, ptr %26, align 4, !tbaa !35
  store i32 %27, ptr %17, align 4, !tbaa !24
  %28 = load ptr, ptr %8, align 8, !tbaa !4
  %29 = load ptr, ptr %9, align 8, !tbaa !33
  %30 = load ptr, ptr %10, align 8, !tbaa !33
  %31 = load ptr, ptr %11, align 8, !tbaa !33
  %32 = load i32, ptr %12, align 4, !tbaa !24
  %33 = load i32, ptr %13, align 4, !tbaa !24
  %34 = call i32 @ff_filter_process_command(ptr noundef %28, ptr noundef %29, ptr noundef %30, ptr noundef %31, i32 noundef %32, i32 noundef %33)
  store i32 %34, ptr %15, align 4, !tbaa !24
  %35 = load i32, ptr %15, align 4, !tbaa !24
  %36 = icmp slt i32 %35, 0
  br i1 %36, label %37, label %39

37:                                               ; preds = %6
  %38 = load i32, ptr %15, align 4, !tbaa !24
  store i32 %38, ptr %7, align 4
  store i32 1, ptr %18, align 4
  br label %58

39:                                               ; preds = %6
  %40 = load ptr, ptr %8, align 8, !tbaa !4
  %41 = load ptr, ptr %14, align 8, !tbaa !22
  %42 = getelementptr inbounds nuw %struct.ReadEIA608Context, ptr %41, i32 0, i32 1
  %43 = load i32, ptr %42, align 8, !tbaa !34
  %44 = load ptr, ptr %14, align 8, !tbaa !22
  %45 = getelementptr inbounds nuw %struct.ReadEIA608Context, ptr %44, i32 0, i32 2
  %46 = load i32, ptr %45, align 4, !tbaa !35
  %47 = call i32 @config_filter(ptr noundef %40, i32 noundef %43, i32 noundef %46)
  store i32 %47, ptr %15, align 4, !tbaa !24
  %48 = load i32, ptr %15, align 4, !tbaa !24
  %49 = icmp slt i32 %48, 0
  br i1 %49, label %50, label %57

50:                                               ; preds = %39
  %51 = load i32, ptr %16, align 4, !tbaa !24
  %52 = load ptr, ptr %14, align 8, !tbaa !22
  %53 = getelementptr inbounds nuw %struct.ReadEIA608Context, ptr %52, i32 0, i32 1
  store i32 %51, ptr %53, align 8, !tbaa !34
  %54 = load i32, ptr %17, align 4, !tbaa !24
  %55 = load ptr, ptr %14, align 8, !tbaa !22
  %56 = getelementptr inbounds nuw %struct.ReadEIA608Context, ptr %55, i32 0, i32 2
  store i32 %54, ptr %56, align 4, !tbaa !35
  br label %57

57:                                               ; preds = %50, %39
  store i32 0, ptr %7, align 4
  store i32 1, ptr %18, align 4
  br label %58

58:                                               ; preds = %57, %37
  call void @llvm.lifetime.end.p0(i64 4, ptr %17) #8
  call void @llvm.lifetime.end.p0(i64 4, ptr %16) #8
  call void @llvm.lifetime.end.p0(i64 4, ptr %15) #8
  call void @llvm.lifetime.end.p0(i64 8, ptr %14) #8
  %59 = load i32, ptr %7, align 4
  ret i32 %59
}