; Function Attrs: nounwind uwtable
define internal range(i32 -2147483648, 1) i32 @process_command(ptr noundef %0, ptr noundef %1, ptr noundef %2, ptr noundef %3, i32 noundef %4, i32 noundef %5) #1 {
  %7 = getelementptr inbounds nuw i8, ptr %0, i64 72
  %8 = load ptr, ptr %7, align 8, !tbaa !4
  %9 = getelementptr inbounds nuw i8, ptr %8, i64 8
  %10 = load i32, ptr %9, align 8, !tbaa !27
  %11 = getelementptr inbounds nuw i8, ptr %8, i64 12
  %12 = load i32, ptr %11, align 4, !tbaa !28
  %13 = tail call i32 @ff_filter_process_command(ptr noundef %0, ptr noundef %1, ptr noundef %2, ptr noundef %3, i32 noundef %4, i32 noundef %5) #10
  %14 = icmp slt i32 %13, 0
  br i1 %14, label %21, label %15

15:                                               ; preds = %6
  %16 = load i32, ptr %9, align 8, !tbaa !27
  %17 = load i32, ptr %11, align 4, !tbaa !28
  %18 = tail call fastcc i32 @config_filter(ptr noundef nonnull %0, i32 noundef %16, i32 noundef %17)
  %19 = icmp slt i32 %18, 0
  br i1 %19, label %20, label %21

20:                                               ; preds = %15
  store i32 %10, ptr %9, align 8, !tbaa !27
  store i32 %12, ptr %11, align 4, !tbaa !28
  br label %21

21:                                               ; preds = %15, %20, %6
  %.0 = phi i32 [ %13, %6 ], [ 0, %20 ], [ 0, %15 ]
  ret i32 %.0
}